target datalayout = "e-m:e-p270:32:32-p271:32:32-p272:64:64-i64:64-i128:128-f80:128-n8:16:32:64-S128"
target triple = "x86_64-pc-linux-gnu"

%struct.trav_handle_udata_t = type { i64, ptr }

@.str.12 = private unnamed_addr constant [50 x i8] c"error in getting group creation property list ID\0A\00", align 1
@.str.13 = private unnamed_addr constant [44 x i8] c"error in getting group creation properties\0A\00", align 1
@.str.14 = private unnamed_addr constant [50 x i8] c"error in closing group creation property list ID\0A\00", align 1
@.str.15 = private unnamed_addr constant [2 x i8] c"/\00", align 1
@.str.57 = private unnamed_addr constant [27 x i8] c"unable to open root group\0A\00", align 1
@.str.58 = private unnamed_addr constant [30 x i8] c"error traversing information\0A\00", align 1

; Function Attrs: nounwind uwtable
define dso_local void @handle_paths(i64 noundef %0, ptr noundef %1, ptr noundef %2, i32 noundef %3, ptr noundef %4) #0 {
  %6 = alloca i64, align 8
  %7 = alloca ptr, align 8
  %8 = alloca ptr, align 8
  %9 = alloca i32, align 4
  %10 = alloca ptr, align 8
  %11 = alloca i64, align 8
  %12 = alloca i64, align 8
  %13 = alloca i32, align 4
  %14 = alloca i32, align 4
  %15 = alloca %struct.trav_handle_udata_t, align 8
  store i64 %0, ptr %6, align 8, !tbaa !4
  store ptr %1, ptr %7, align 8, !tbaa !22
  store ptr %2, ptr %8, align 8, !tbaa !24
  store i32 %3, ptr %9, align 4, !tbaa !11
  store ptr %4, ptr %10, align 8, !tbaa !22
  call void @llvm.lifetime.start.p0(i64 8, ptr %11) #10
  store i64 -1, ptr %11, align 8, !tbaa !4
  %16 = load i64, ptr %6, align 8, !tbaa !4
  %17 = call i64 @H5Gopen2(i64 noundef %16, ptr noundef @.str.15, i64 noundef 0)
  store i64 %17, ptr %11, align 8, !tbaa !4
  %18 = icmp slt i64 %17, 0
  br i1 %18, label %19, label %20

19:                                               ; preds = %5
  call void (ptr, ...) @error_msg(ptr noundef @.str.57)
  call void @h5tools_setstatus(i32 noundef 1)
  br label %50

20:                                               ; preds = %5
  call void @llvm.lifetime.start.p0(i64 8, ptr %12) #10
  call void @llvm.lifetime.start.p0(i64 4, ptr %13) #10
  call void @llvm.lifetime.start.p0(i64 4, ptr %14) #10
  call void @llvm.lifetime.start.p0(i64 16, ptr %15) #10
  %21 = load i64, ptr %11, align 8, !tbaa !4
  %22 = call i64 @H5Gget_create_plist(i64 noundef %21)
  store i64 %22, ptr %12, align 8, !tbaa !4
  %23 = icmp slt i64 %22, 0
  br i1 %23, label %24, label %25

24:                                               ; preds = %20
  call void (ptr, ...) @error_msg(ptr noundef @.str.12)
  call void @h5tools_setstatus(i32 noundef 1)
  br label %25

25:                                               ; preds = %24, %20
  %26 = load i64, ptr %12, align 8, !tbaa !4
  %27 = call i32 @H5Pget_attr_creation_order(i64 noundef %26, ptr noundef %14)
  %28 = icmp slt i32 %27, 0
  br i1 %28, label %29, label %30

29:                                               ; preds = %25
  call void (ptr, ...) @error_msg(ptr noundef @.str.13)
  call void @h5tools_setstatus(i32 noundef 1)
  br label %30

30:                                               ; preds = %29, %25
  %31 = load i64, ptr %12, align 8, !tbaa !4
  %32 = call i32 @H5Pget_link_creation_order(i64 noundef %31, ptr noundef %13)
  %33 = icmp slt i32 %32, 0
  br i1 %33, label %34, label %35

34:                                               ; preds = %30
  call void (ptr, ...) @error_msg(ptr noundef @.str.13)
  call void @h5tools_setstatus(i32 noundef 1)
  br label %35

35:                                               ; preds = %34, %30
  %36 = load i64, ptr %12, align 8, !tbaa !4
  %37 = call i32 @H5Pclose(i64 noundef %36)
  %38 = icmp slt i32 %37, 0
  br i1 %38, label %39, label %40

39:                                               ; preds = %35
  call void (ptr, ...) @error_msg(ptr noundef @.str.14)
  call void @h5tools_setstatus(i32 noundef 1)
  br label %40

40:                                               ; preds = %39, %35
  %41 = load i64, ptr %6, align 8, !tbaa !4
  %42 = getelementptr inbounds nuw %struct.trav_handle_udata_t, ptr %15, i32 0, i32 0
  store i64 %41, ptr %42, align 8, !tbaa !119
  %43 = load ptr, ptr %7, align 8, !tbaa !22
  %44 = getelementptr inbounds nuw %struct.trav_handle_udata_t, ptr %15, i32 0, i32 1
  store ptr %43, ptr %44, align 8, !tbaa !121
  %45 = load i64, ptr %6, align 8, !tbaa !4
  %46 = call i32 @h5trav_visit(i64 noundef %45, ptr noundef @.str.15, i1 noundef zeroext true, i1 noundef zeroext true, ptr noundef @obj_search, ptr noundef @lnk_search, ptr noundef %15, i32 noundef 1)
  %47 = icmp slt i32 %46, 0
  br i1 %47, label %48, label %49

48:                                               ; preds = %40
  call void (ptr, ...) @error_msg(ptr noundef @.str.58)
  call void @h5tools_setstatus(i32 noundef 1)
  br label %49

49:                                               ; preds = %48, %40
  call void @llvm.lifetime.end.p0(i64 16, ptr %15) #10
  call void @llvm.lifetime.end.p0(i64 4, ptr %14) #10
  call void @llvm.lifetime.end.p0(i64 4, ptr %13) #10
  call void @llvm.lifetime.end.p0(i64 8, ptr %12) #10
  br label %50

50:                                               ; preds = %49, %19
  call void @llvm.lifetime.end.p0(i64 8, ptr %11) #10
  ret void
}