; Function Attrs: nounwind uwtable
define dso_local void @handle_paths(i64 noundef %0, ptr noundef %1, ptr noundef readnone captures(none) %2, i32 noundef %3, ptr noundef readnone captures(none) %4) local_unnamed_addr #0 {
  %6 = alloca i32, align 4
  %7 = alloca i32, align 4
  %8 = alloca %struct.trav_handle_udata_t, align 8
  %9 = tail call i64 @H5Gopen2(i64 noundef %0, ptr noundef nonnull @.str.15, i64 noundef 0) #15
  %10 = icmp slt i64 %9, 0
  br i1 %10, label %11, label %12

11:                                               ; preds = %5
  tail call void (ptr, ...) @error_msg(ptr noundef nonnull @.str.57) #15
  tail call void @h5tools_setstatus(i32 noundef 1) #15
  br label %34

12:                                               ; preds = %5
  call void @llvm.lifetime.start.p0(i64 4, ptr nonnull %6) #15
  call void @llvm.lifetime.start.p0(i64 4, ptr nonnull %7) #15
  call void @llvm.lifetime.start.p0(i64 16, ptr nonnull %8) #15
  %13 = tail call i64 @H5Gget_create_plist(i64 noundef %9) #15
  %14 = icmp slt i64 %13, 0
  br i1 %14, label %15, label %16

15:                                               ; preds = %12
  tail call void (ptr, ...) @error_msg(ptr noundef nonnull @.str.12) #15
  tail call void @h5tools_setstatus(i32 noundef 1) #15
  br label %16

16:                                               ; preds = %15, %12
  %17 = call i32 @H5Pget_attr_creation_order(i64 noundef %13, ptr noundef nonnull %7) #15
  %18 = icmp slt i32 %17, 0
  br i1 %18, label %19, label %20

19:                                               ; preds = %16
  call void (ptr, ...) @error_msg(ptr noundef nonnull @.str.13) #15
  call void @h5tools_setstatus(i32 noundef 1) #15
  br label %20

20:                                               ; preds = %19, %16
  %21 = call i32 @H5Pget_link_creation_order(i64 noundef %13, ptr noundef nonnull %6) #15
  %22 = icmp slt i32 %21, 0
  br i1 %22, label %23, label %24

23:                                               ; preds = %20
  call void (ptr, ...) @error_msg(ptr noundef nonnull @.str.13) #15
  call void @h5tools_setstatus(i32 noundef 1) #15
  br label %24

24:                                               ; preds = %23, %20
  %25 = call i32 @H5Pclose(i64 noundef %13) #15
  %26 = icmp slt i32 %25, 0
  br i1 %26, label %27, label %28

27:                                               ; preds = %24
  call void (ptr, ...) @error_msg(ptr noundef nonnull @.str.14) #15
  call void @h5tools_setstatus(i32 noundef 1) #15
  br label %28

28:                                               ; preds = %27, %24
  store i64 %0, ptr %8, align 8, !tbaa !121
  %29 = getelementptr inbounds nuw i8, ptr %8, i64 8
  store ptr %1, ptr %29, align 8, !tbaa !123
  %30 = call i32 @h5trav_visit(i64 noundef %0, ptr noundef nonnull @.str.15, i1 noundef zeroext true, i1 noundef zeroext true, ptr noundef nonnull @obj_search, ptr noundef nonnull @lnk_search, ptr noundef nonnull %8, i32 noundef 1) #15
  %31 = icmp slt i32 %30, 0
  br i1 %31, label %32, label %33

32:                                               ; preds = %28
  call void (ptr, ...) @error_msg(ptr noundef nonnull @.str.58) #15
  call void @h5tools_setstatus(i32 noundef 1) #15
  br label %33

33:                                               ; preds = %32, %28
  call void @llvm.lifetime.end.p0(i64 16, ptr nonnull %8) #15
  call void @llvm.lifetime.end.p0(i64 4, ptr nonnull %7) #15
  call void @llvm.lifetime.end.p0(i64 4, ptr nonnull %6) #15
  br label %34

34:                                               ; preds = %33, %11
  ret void
}